Certificate:
    Data:
        Version: 3 (0x2)
        Serial Number:
            6b:b0:5f:70:c1:21:77:dc:1f:92:9f:20:bd:71:fe:d3
        Signature Algorithm: sha256WithRSAEncryption
        Issuer: CN=CyberCloak-CA
        Validity
            Not Before: Apr 22 11:37:47 2025 GMT
            Not After : Jul 26 11:37:47 2027 GMT
        Subject: CN=CyberCloak-CA
        Subject Public Key Info:
            Public Key Algorithm: rsaEncryption
                Public-Key: (2048 bit)
                Modulus:
                    00:8a:27:c4:5d:a7:78:a7:99:8d:17:87:9d:b4:cd:
                    0f:48:99:20:f0:69:8c:c2:9d:0a:ea:ae:ed:69:ce:
                    d3:07:8b:56:37:b1:80:f4:69:e9:90:4a:48:12:31:
                    a6:56:33:ad:fe:79:c9:ff:b2:d3:96:b4:6a:ac:8a:
                    17:50:74:66:3c:99:3e:f6:9c:f8:15:3d:a9:6b:13:
                    2c:d9:8b:0e:20:40:82:32:14:65:fd:d3:1f:f3:cc:
                    a7:cf:16:a6:31:3a:aa:0a:a6:5d:02:2f:48:db:5d:
                    d1:9c:99:75:14:b0:76:a3:05:97:3a:59:6b:98:4e:
                    f1:c9:31:a5:04:87:d0:c6:25:87:72:ec:47:95:92:
                    58:98:fd:11:33:28:1d:88:6c:2a:e2:4f:2f:07:19:
                    37:48:05:65:68:00:12:97:be:7b:ff:a1:9f:a2:1a:
                    e6:aa:6c:83:54:8d:3f:b5:86:3a:46:4b:74:c5:78:
                    50:1b:3b:88:e5:a0:e4:1d:6f:00:92:14:ff:24:9b:
                    62:c6:4a:f1:ed:87:d9:97:e7:9f:fc:03:b9:f2:28:
                    58:41:21:b3:7e:39:02:05:82:0d:bc:8f:b2:be:10:
                    c5:68:3d:40:72:d9:96:fe:04:fa:01:da:6c:cf:e3:
                    fd:83:65:ee:a1:74:84:25:92:23:75:d0:69:1d:be:
                    22:11
                Exponent: 65537 (0x10001)
        X509v3 extensions:
            X509v3 Basic Constraints: 
                CA:FALSE
            X509v3 Subject Key Identifier: 
                C0:45:97:DC:D6:EC:97:A9:12:0A:63:71:4B:A9:83:52:93:DF:6E:93
            X509v3 Authority Key Identifier: 
                keyid:78:B0:C1:E1:B2:9F:E2:DD:33:E9:84:C5:4E:D1:0F:25:B7:98:2F:0A
                DirName:/CN=CyberCloak-CA
                serial:55:AA:29:AF:6F:EF:8F:53:EA:FA:80:37:A7:EC:15:15:FD:DC:F3:1A
            X509v3 Extended Key Usage: 
                TLS Web Server Authentication
            X509v3 Key Usage: 
                Digital Signature, Key Encipherment
    Signature Algorithm: sha256WithRSAEncryption
    Signature Value:
        70:d7:ec:16:6e:2b:83:03:c5:67:23:e5:97:be:e8:33:ac:a5:
        6a:8c:86:9b:5e:f4:e8:52:37:39:4e:1b:58:81:4d:8c:46:63:
        d3:a5:48:62:d5:90:42:3f:52:ec:c2:91:16:08:a1:cd:4a:b1:
        30:6c:72:90:11:90:6f:60:05:a5:90:87:4f:d9:70:a9:44:83:
        82:8e:f6:3c:95:cc:5b:09:aa:fd:9c:70:1d:4a:08:9f:db:46:
        4c:c1:4f:68:4a:85:a2:5b:9c:af:46:ef:cc:2c:c2:92:9c:ff:
        ce:3e:bb:7a:41:5f:40:31:27:df:91:9b:7c:91:f9:10:33:e3:
        72:d6:72:c4:bd:a2:a8:32:9c:92:64:e9:7c:f0:64:fc:eb:e7:
        39:7f:7e:bd:18:93:eb:90:92:42:94:a5:c3:c5:0d:53:0c:a8:
        1b:b6:fa:24:3e:ed:da:25:fb:9c:9e:ce:85:4f:f4:e5:e9:25:
        f8:d1:51:8c:1f:5c:5e:8a:65:e4:a9:a6:6d:47:58:d4:46:e7:
        f7:69:97:32:ca:5a:3d:4c:a1:c3:bb:4c:f5:e2:ff:42:45:e7:
        4d:3a:20:52:81:bf:25:61:f7:c2:11:82:77:13:8d:97:56:26:
        35:9d:37:a8:4e:4b:22:69:b7:b4:dd:3a:20:89:3e:98:59:70:
        6f:47:a2:c4
-----BEGIN CERTIFICATE-----
MIIDXzCCAkegAwIBAgIQa7BfcMEhd9wfkp8gvXH+0zANBgkqhkiG9w0BAQsFADAY
MRYwFAYDVQQDDA1DeWJlckNsb2FrLUNBMB4XDTI1MDQyMjExMzc0N1oXDTI3MDcy
NjExMzc0N1owGDEWMBQGA1UEAwwNQ3liZXJDbG9hay1DQTCCASIwDQYJKoZIhvcN
AQEBBQADggEPADCCAQoCggEBAIonxF2neKeZjReHnbTND0iZIPBpjMKdCuqu7WnO
0weLVjexgPRp6ZBKSBIxplYzrf55yf+y05a0aqyKF1B0ZjyZPvac+BU9qWsTLNmL
DiBAgjIUZf3TH/PMp88WpjE6qgqmXQIvSNtd0ZyZdRSwdqMFlzpZa5hO8ckxpQSH
0MYlh3LsR5WSWJj9ETMoHYhsKuJPLwcZN0gFZWgAEpe+e/+hn6Ia5qpsg1SNP7WG
OkZLdMV4UBs7iOWg5B1vAJIU/ySbYsZK8e2H2Zfnn/wDufIoWEEhs345AgWCDbyP
sr4QxWg9QHLZlv4E+gHabM/j/YNl7qF0hCWSI3XQaR2+IhECAwEAAaOBpDCBoTAJ
BgNVHRMEAjAAMB0GA1UdDgQWBBTARZfc1uyXqRIKY3FLqYNSk99ukzBTBgNVHSME
TDBKgBR4sMHhsp/i3TPphMVO0Q8lt5gvCqEcpBowGDEWMBQGA1UEAwwNQ3liZXJD
bG9hay1DQYIUVaopr2/vj1Pq+oA3p+wVFf3c8xowEwYDVR0lBAwwCgYIKwYBBQUH
AwEwCwYDVR0PBAQDAgWgMA0GCSqGSIb3DQEBCwUAA4IBAQBw1+wWbiuDA8VnI+WX
vugzrKVqjIabXvToUjc5ThtYgU2MRmPTpUhi1ZBCP1LswpEWCKHNSrEwbHKQEZBv
YAWlkIdP2XCpRIOCjvY8lcxbCar9nHAdSgif20ZMwU9oSoWiW5yvRu/MLMKSnP/O
Prt6QV9AMSffkZt8kfkQM+Ny1nLEvaKoMpySZOl88GT86+c5f369GJPrkJJClKXD
xQ1TDKgbtvokPu3aJfucns6FT/Tl6SX40VGMH1xeimXkqaZtR1jURuf3aZcyylo9
TKHDu0z14v9CRedNOiBSgb8lYffCEYJ3E42XViY1nTeoTksiabe03TogiT6YWXBv
R6LE
-----END CERTIFICATE-----
